; Function Attrs: mustprogress uwtable
define noundef zeroext i1 @_ZN3zmq6pipe_t5writeEPKNS_5msg_tE(ptr noundef nonnull align 8 captures(none) dereferenceable(328) %0, ptr noundef %1) local_unnamed_addr #0 align 2 {
  %3 = getelementptr inbounds nuw i8, ptr %0, i64 89
  %4 = load i8, ptr %3, align 1, !tbaa !101, !range !7, !noundef !8
  %5 = trunc nuw i8 %4 to i1
  %6 = getelementptr inbounds nuw i8, ptr %0, i64 152
  %7 = load i32, ptr %6, align 8
  %8 = icmp eq i32 %7, 0
  %.not2.i = select i1 %5, i1 %8, i1 false
  br i1 %.not2.i, label %9, label %_ZN3zmq6pipe_t11check_writeEv.exit.thread, !prof !47

9:                                                ; preds = %2
  %10 = getelementptr inbounds nuw i8, ptr %0, i64 92
  %11 = load i32, ptr %10, align 4, !tbaa !102
  %12 = icmp slt i32 %11, 1
  %13 = getelementptr inbounds nuw i8, ptr %0, i64 120
  %14 = load i64, ptr %13, align 8
  %15 = getelementptr inbounds nuw i8, ptr %0, i64 128
  %16 = load i64, ptr %15, align 8
  %17 = sub i64 %14, %16
  %18 = zext nneg i32 %11 to i64
  %19 = icmp ult i64 %17, %18
  %20 = select i1 %12, i1 true, i1 %19
  br i1 %20, label %_ZN3zmq6pipe_t11check_writeEv.exit, label %21, !prof !47

21:                                               ; preds = %9
  store i8 0, ptr %3, align 1, !tbaa !101
  br label %_ZN3zmq6pipe_t11check_writeEv.exit.thread

_ZN3zmq6pipe_t11check_writeEv.exit:               ; preds = %9
  %22 = tail call noundef zeroext i8 @_ZNK3zmq5msg_t5flagsEv(ptr noundef nonnull align 8 dereferenceable(64) %1)
  %23 = and i8 %22, 1
  %24 = icmp ne i8 %23, 0
  %25 = tail call noundef zeroext i1 @_ZNK3zmq5msg_t13is_routing_idEv(ptr noundef nonnull align 8 dereferenceable(64) %1)
  %26 = getelementptr inbounds nuw i8, ptr %0, i64 80
  %27 = load ptr, ptr %26, align 8, !tbaa !103
  %28 = load ptr, ptr %27, align 8, !tbaa !9
  %29 = getelementptr inbounds nuw i8, ptr %28, i64 16
  %30 = load ptr, ptr %29, align 8
  tail call void %30(ptr noundef nonnull align 8 dereferenceable(8) %27, ptr noundef nonnull align 8 dereferenceable(64) %1, i1 noundef zeroext %24)
  %brmerge = or i1 %25, %24
  br i1 %brmerge, label %_ZN3zmq6pipe_t11check_writeEv.exit.thread, label %31

31:                                               ; preds = %_ZN3zmq6pipe_t11check_writeEv.exit
  %32 = load i64, ptr %13, align 8, !tbaa !104
  %33 = add i64 %32, 1
  store i64 %33, ptr %13, align 8, !tbaa !104
  br label %_ZN3zmq6pipe_t11check_writeEv.exit.thread

_ZN3zmq6pipe_t11check_writeEv.exit.thread:        ; preds = %21, %2, %31, %_ZN3zmq6pipe_t11check_writeEv.exit
  %.0.i8 = phi i1 [ true, %31 ], [ true, %_ZN3zmq6pipe_t11check_writeEv.exit ], [ false, %2 ], [ false, %21 ]
  ret i1 %.0.i8
}